target datalayout = "e-m:e-p270:32:32-p271:32:32-p272:64:64-i64:64-i128:128-f80:128-n8:16:32:64-S128"
target triple = "x86_64-pc-linux-gnu"

; Function Attrs: nounwind uwtable
define internal void @HFilter16i_C(ptr noundef %0, i32 noundef %1, i32 noundef %2, i32 noundef %3, i32 noundef %4) #0 {
  %6 = alloca ptr, align 8
  %7 = alloca i32, align 4
  %8 = alloca i32, align 4
  %9 = alloca i32, align 4
  %10 = alloca i32, align 4
  %11 = alloca i32, align 4
  store ptr %0, ptr %6, align 8, !tbaa !16
  store i32 %1, ptr %7, align 4, !tbaa !9
  store i32 %2, ptr %8, align 4, !tbaa !9
  store i32 %3, ptr %9, align 4, !tbaa !9
  store i32 %4, ptr %10, align 4, !tbaa !9
  call void @llvm.lifetime.start.p0(i64 4, ptr %11) #7
  store i32 3, ptr %11, align 4, !tbaa !9
  br label %12

12:                                               ; preds = %23, %5
  %13 = load i32, ptr %11, align 4, !tbaa !9
  %14 = icmp sgt i32 %13, 0
  br i1 %14, label %15, label %26

15:                                               ; preds = %12
  %16 = load ptr, ptr %6, align 8, !tbaa !16
  %17 = getelementptr inbounds i8, ptr %16, i64 4
  store ptr %17, ptr %6, align 8, !tbaa !16
  %18 = load ptr, ptr %6, align 8, !tbaa !16
  %19 = load i32, ptr %7, align 4, !tbaa !9
  %20 = load i32, ptr %8, align 4, !tbaa !9
  %21 = load i32, ptr %9, align 4, !tbaa !9
  %22 = load i32, ptr %10, align 4, !tbaa !9
  call void @FilterLoop24_C(ptr noundef %18, i32 noundef 1, i32 noundef %19, i32 noundef 16, i32 noundef %20, i32 noundef %21, i32 noundef %22)
  br label %23

23:                                               ; preds = %15
  %24 = load i32, ptr %11, align 4, !tbaa !9
  %25 = add nsw i32 %24, -1
  store i32 %25, ptr %11, align 4, !tbaa !9
  br label %12, !llvm.loop !26

26:                                               ; preds = %12
  call void @llvm.lifetime.end.p0(i64 4, ptr %11) #7
  ret void
}