; Function Attrs: nofree norecurse nosync nounwind memory(read, argmem: readwrite, inaccessiblemem: none) uwtable
define internal void @HFilter16i_C(ptr noundef captures(none) %0, i32 noundef %1, i32 noundef %2, i32 noundef %3, i32 noundef %4) #5 {
  br label %6

6:                                                ; preds = %5, %6
  %.09 = phi i32 [ 3, %5 ], [ %8, %6 ]
  %.078 = phi ptr [ %0, %5 ], [ %7, %6 ]
  %7 = getelementptr inbounds nuw i8, ptr %.078, i64 4
  tail call fastcc void @FilterLoop24_C(ptr noundef nonnull %7, i32 noundef 1, i32 noundef %1, i32 noundef 16, i32 noundef %2, i32 noundef %3, i32 noundef %4)
  %8 = add nsw i32 %.09, -1
  %9 = icmp ugt i32 %.09, 1
  br i1 %9, label %6, label %10, !llvm.loop !24

10:                                               ; preds = %6
  ret void
}